#include <math.h>
#include <stdio.h>
#include <stdlib.h>
#include <string.h>

int main()
{
	char a[100];
	int i,j,n,k,h,z,t;
	scanf("%d",&k);
	getchar();
	for(h=0;h<k;h++)
	{
		z=0;
        gets(a);
	    n=strlen(a);
	    for(i=0;i<n;i++)
		{
		    t=1;
	    	for(j=0;j<i;j++)
			{
			      if(a[i]==a[j])t=0;
			}
		    for(j=i+1;j<n;j++)
			{
			      if(a[i]==a[j])t=0;
			}
	    	if(t==1)
			{
			      printf("%c\n",a[i]);
			      z++;
			      break;
			}
		}
	    if(z==0)printf("no\n");
	}
}
